target datalayout = "e-m:e-p270:32:32-p271:32:32-p272:64:64-i64:64-i128:128-f80:128-n8:16:32:64-S128"
target triple = "x86_64-pc-linux-gnu"

%struct.FunctionCallInfoBaseData = type { ptr, ptr, ptr, i32, i8, i16, [0 x %struct.NullableDatum] }
%struct.NullableDatum = type { i64, i8 }
%struct.macaddr = type { i8, i8, i8, i8, i8, i8 }
%struct.StringInfoData = type { ptr, i32, i32, i32 }

; Function Attrs: inlinehint nounwind uwtable
define internal void @pq_writeint8(ptr noalias noundef %0, i8 noundef zeroext %1) #2 {
  %3 = alloca ptr, align 8
  %4 = alloca i8, align 1
  %5 = alloca i8, align 1
  store ptr %0, ptr %3, align 8
  store i8 %1, ptr %4, align 1
  call void @llvm.lifetime.start.p0(i64 1, ptr %5) #9
  %6 = load i8, ptr %4, align 1
  store i8 %6, ptr %5, align 1
  %7 = load ptr, ptr %3, align 8
  %8 = getelementptr inbounds nuw %struct.StringInfoData, ptr %7, i32 0, i32 0
  %9 = load ptr, ptr %8, align 8
  %10 = load ptr, ptr %3, align 8
  %11 = getelementptr inbounds nuw %struct.StringInfoData, ptr %10, i32 0, i32 1
  %12 = load i32, ptr %11, align 8
  %13 = sext i32 %12 to i64
  %14 = getelementptr inbounds i8, ptr %9, i64 %13
  call void @llvm.memcpy.p0.p0.i64(ptr align 1 %14, ptr align 1 %5, i64 1, i1 false)
  %15 = load ptr, ptr %3, align 8
  %16 = getelementptr inbounds nuw %struct.StringInfoData, ptr %15, i32 0, i32 1
  %17 = load i32, ptr %16, align 8
  %18 = sext i32 %17 to i64
  %19 = add i64 %18, 1
  %20 = trunc i64 %19 to i32
  store i32 %20, ptr %16, align 8
  call void @llvm.lifetime.end.p0(i64 1, ptr %5) #9
  ret void
}

; Function Attrs: inlinehint nounwind uwtable
define internal void @pq_sendint8(ptr noundef %0, i8 noundef zeroext %1) #2 {
  %3 = alloca ptr, align 8
  %4 = alloca i8, align 1
  store ptr %0, ptr %3, align 8
  store i8 %1, ptr %4, align 1
  %5 = load ptr, ptr %3, align 8
  call void @enlargeStringInfo(ptr noundef %5, i32 noundef 1)
  %6 = load ptr, ptr %3, align 8
  %7 = load i8, ptr %4, align 1
  call void @pq_writeint8(ptr noundef %6, i8 noundef zeroext %7)
  ret void
}

; Function Attrs: inlinehint nounwind uwtable
define internal ptr @DatumGetPointer(i64 noundef %0) #2 {
  %2 = alloca i64, align 8
  store i64 %0, ptr %2, align 8
  %3 = load i64, ptr %2, align 8
  %4 = inttoptr i64 %3 to ptr
  ret ptr %4
}

; Function Attrs: inlinehint nounwind uwtable
define internal i64 @PointerGetDatum(ptr noundef %0) #2 {
  %2 = alloca ptr, align 8
  store ptr %0, ptr %2, align 8
  %3 = load ptr, ptr %2, align 8
  %4 = ptrtoint ptr %3 to i64
  ret i64 %4
}

; Function Attrs: inlinehint nounwind uwtable
define internal void @pq_sendbyte(ptr noundef %0, i8 noundef zeroext %1) #2 {
  %3 = alloca ptr, align 8
  %4 = alloca i8, align 1
  store ptr %0, ptr %3, align 8
  store i8 %1, ptr %4, align 1
  %5 = load ptr, ptr %3, align 8
  %6 = load i8, ptr %4, align 1
  call void @pq_sendint8(ptr noundef %5, i8 noundef zeroext %6)
  ret void
}

; Function Attrs: inlinehint nounwind uwtable
define internal ptr @DatumGetMacaddrP(i64 noundef %0) #2 {
  %2 = alloca i64, align 8
  store i64 %0, ptr %2, align 8
  %3 = load i64, ptr %2, align 8
  %4 = call ptr @DatumGetPointer(i64 noundef %3)
  ret ptr %4
}

; Function Attrs: nounwind uwtable
define dso_local i64 @macaddr_send(ptr noundef %0) #0 {
  %2 = alloca ptr, align 8
  %3 = alloca ptr, align 8
  %4 = alloca %struct.StringInfoData, align 8
  store ptr %0, ptr %2, align 8
  call void @llvm.lifetime.start.p0(i64 8, ptr %3) #9
  %5 = load ptr, ptr %2, align 8
  %6 = getelementptr inbounds nuw %struct.FunctionCallInfoBaseData, ptr %5, i32 0, i32 6
  %7 = getelementptr inbounds [0 x %struct.NullableDatum], ptr %6, i64 0, i64 0
  %8 = getelementptr inbounds nuw %struct.NullableDatum, ptr %7, i32 0, i32 0
  %9 = load i64, ptr %8, align 8
  %10 = call ptr @DatumGetMacaddrP(i64 noundef %9)
  store ptr %10, ptr %3, align 8
  call void @llvm.lifetime.start.p0(i64 24, ptr %4) #9
  call void @pq_begintypsend(ptr noundef %4)
  %11 = load ptr, ptr %3, align 8
  %12 = getelementptr inbounds nuw %struct.macaddr, ptr %11, i32 0, i32 0
  %13 = load i8, ptr %12, align 1
  call void @pq_sendbyte(ptr noundef %4, i8 noundef zeroext %13)
  %14 = load ptr, ptr %3, align 8
  %15 = getelementptr inbounds nuw %struct.macaddr, ptr %14, i32 0, i32 1
  %16 = load i8, ptr %15, align 1
  call void @pq_sendbyte(ptr noundef %4, i8 noundef zeroext %16)
  %17 = load ptr, ptr %3, align 8
  %18 = getelementptr inbounds nuw %struct.macaddr, ptr %17, i32 0, i32 2
  %19 = load i8, ptr %18, align 1
  call void @pq_sendbyte(ptr noundef %4, i8 noundef zeroext %19)
  %20 = load ptr, ptr %3, align 8
  %21 = getelementptr inbounds nuw %struct.macaddr, ptr %20, i32 0, i32 3
  %22 = load i8, ptr %21, align 1
  call void @pq_sendbyte(ptr noundef %4, i8 noundef zeroext %22)
  %23 = load ptr, ptr %3, align 8
  %24 = getelementptr inbounds nuw %struct.macaddr, ptr %23, i32 0, i32 4
  %25 = load i8, ptr %24, align 1
  call void @pq_sendbyte(ptr noundef %4, i8 noundef zeroext %25)
  %26 = load ptr, ptr %3, align 8
  %27 = getelementptr inbounds nuw %struct.macaddr, ptr %26, i32 0, i32 5
  %28 = load i8, ptr %27, align 1
  call void @pq_sendbyte(ptr noundef %4, i8 noundef zeroext %28)
  %29 = call ptr @pq_endtypsend(ptr noundef %4)
  %30 = call i64 @PointerGetDatum(ptr noundef %29)
  call void @llvm.lifetime.end.p0(i64 24, ptr %4) #9
  call void @llvm.lifetime.end.p0(i64 8, ptr %3) #9
  ret i64 %30
}