; Function Attrs: nounwind uwtable
define dso_local i64 @macaddr_send(ptr noundef readonly captures(none) %0) local_unnamed_addr #0 {
  %2 = alloca %struct.StringInfoData, align 8
  %3 = getelementptr inbounds nuw i8, ptr %0, i64 32
  %4 = load i64, ptr %3, align 8
  %5 = inttoptr i64 %4 to ptr
  call void @llvm.lifetime.start.p0(i64 24, ptr nonnull %2) #7
  call void @pq_begintypsend(ptr noundef nonnull %2) #7
  %6 = load i8, ptr %5, align 1
  call void @enlargeStringInfo(ptr noundef nonnull %2, i32 noundef 1) #7
  call void @llvm.experimental.noalias.scope.decl(metadata !4)
  %7 = load ptr, ptr %2, align 8, !alias.scope !4
  %8 = getelementptr inbounds nuw i8, ptr %2, i64 8
  %9 = load i32, ptr %8, align 8, !alias.scope !4
  %10 = sext i32 %9 to i64
  %11 = getelementptr inbounds i8, ptr %7, i64 %10
  store i8 %6, ptr %11, align 1, !noalias !4
  %12 = add i32 %9, 1
  store i32 %12, ptr %8, align 8, !alias.scope !4
  %13 = getelementptr inbounds nuw i8, ptr %5, i64 1
  %14 = load i8, ptr %13, align 1
  call void @enlargeStringInfo(ptr noundef nonnull %2, i32 noundef 1) #7
  call void @llvm.experimental.noalias.scope.decl(metadata !7)
  %15 = load ptr, ptr %2, align 8, !alias.scope !7
  %16 = load i32, ptr %8, align 8, !alias.scope !7
  %17 = sext i32 %16 to i64
  %18 = getelementptr inbounds i8, ptr %15, i64 %17
  store i8 %14, ptr %18, align 1, !noalias !7
  %19 = add i32 %16, 1
  store i32 %19, ptr %8, align 8, !alias.scope !7
  %20 = getelementptr inbounds nuw i8, ptr %5, i64 2
  %21 = load i8, ptr %20, align 1
  call void @enlargeStringInfo(ptr noundef nonnull %2, i32 noundef 1) #7
  call void @llvm.experimental.noalias.scope.decl(metadata !10)
  %22 = load ptr, ptr %2, align 8, !alias.scope !10
  %23 = load i32, ptr %8, align 8, !alias.scope !10
  %24 = sext i32 %23 to i64
  %25 = getelementptr inbounds i8, ptr %22, i64 %24
  store i8 %21, ptr %25, align 1, !noalias !10
  %26 = add i32 %23, 1
  store i32 %26, ptr %8, align 8, !alias.scope !10
  %27 = getelementptr inbounds nuw i8, ptr %5, i64 3
  %28 = load i8, ptr %27, align 1
  call void @enlargeStringInfo(ptr noundef nonnull %2, i32 noundef 1) #7
  call void @llvm.experimental.noalias.scope.decl(metadata !13)
  %29 = load ptr, ptr %2, align 8, !alias.scope !13
  %30 = load i32, ptr %8, align 8, !alias.scope !13
  %31 = sext i32 %30 to i64
  %32 = getelementptr inbounds i8, ptr %29, i64 %31
  store i8 %28, ptr %32, align 1, !noalias !13
  %33 = add i32 %30, 1
  store i32 %33, ptr %8, align 8, !alias.scope !13
  %34 = getelementptr inbounds nuw i8, ptr %5, i64 4
  %35 = load i8, ptr %34, align 1
  call void @enlargeStringInfo(ptr noundef nonnull %2, i32 noundef 1) #7
  call void @llvm.experimental.noalias.scope.decl(metadata !16)
  %36 = load ptr, ptr %2, align 8, !alias.scope !16
  %37 = load i32, ptr %8, align 8, !alias.scope !16
  %38 = sext i32 %37 to i64
  %39 = getelementptr inbounds i8, ptr %36, i64 %38
  store i8 %35, ptr %39, align 1, !noalias !16
  %40 = add i32 %37, 1
  store i32 %40, ptr %8, align 8, !alias.scope !16
  %41 = getelementptr inbounds nuw i8, ptr %5, i64 5
  %42 = load i8, ptr %41, align 1
  call void @enlargeStringInfo(ptr noundef nonnull %2, i32 noundef 1) #7
  call void @llvm.experimental.noalias.scope.decl(metadata !19)
  %43 = load ptr, ptr %2, align 8, !alias.scope !19
  %44 = load i32, ptr %8, align 8, !alias.scope !19
  %45 = sext i32 %44 to i64
  %46 = getelementptr inbounds i8, ptr %43, i64 %45
  store i8 %42, ptr %46, align 1, !noalias !19
  %47 = add i32 %44, 1
  store i32 %47, ptr %8, align 8, !alias.scope !19
  %48 = call ptr @pq_endtypsend(ptr noundef nonnull %2) #7
  %49 = ptrtoint ptr %48 to i64
  call void @llvm.lifetime.end.p0(i64 24, ptr nonnull %2) #7
  ret i64 %49
}